target datalayout = "e-m:e-p270:32:32-p271:32:32-p272:64:64-i64:64-i128:128-f80:128-n8:16:32:64-S128"
target triple = "x86_64-pc-linux-gnu"

%union.anon.4 = type { i64, [24 x i8] }

; Function Attrs: nounwind uwtable
define i64 @CRYPTO_nistcts128_decrypt(ptr noundef %0, ptr noundef %1, i64 noundef %2, ptr noundef %3, ptr noundef %4, ptr noundef %5) #0 {
  %7 = alloca i64, align 8
  %8 = alloca ptr, align 8
  %9 = alloca ptr, align 8
  %10 = alloca i64, align 8
  %11 = alloca ptr, align 8
  %12 = alloca ptr, align 8
  %13 = alloca ptr, align 8
  %14 = alloca i64, align 8
  %15 = alloca %union.anon.4, align 8
  %16 = alloca i32, align 4
  store ptr %0, ptr %8, align 8, !tbaa !3
  store ptr %1, ptr %9, align 8, !tbaa !3
  store i64 %2, ptr %10, align 8, !tbaa !8
  store ptr %3, ptr %11, align 8, !tbaa !10
  store ptr %4, ptr %12, align 8, !tbaa !3
  store ptr %5, ptr %13, align 8, !tbaa !10
  call void @llvm.lifetime.start.p0(i64 8, ptr %14) #5
  call void @llvm.lifetime.start.p0(i64 32, ptr %15) #5
  %17 = load i64, ptr %10, align 8, !tbaa !8
  %18 = icmp ult i64 %17, 16
  br i1 %18, label %19, label %20

19:                                               ; preds = %6
  store i64 0, ptr %7, align 8
  store i32 1, ptr %16, align 4
  br label %79

20:                                               ; preds = %6
  %21 = load i64, ptr %10, align 8, !tbaa !8
  %22 = urem i64 %21, 16
  store i64 %22, ptr %14, align 8, !tbaa !8
  %23 = load i64, ptr %14, align 8, !tbaa !8
  %24 = icmp eq i64 %23, 0
  br i1 %24, label %25, label %33

25:                                               ; preds = %20
  %26 = load ptr, ptr %13, align 8, !tbaa !10
  %27 = load ptr, ptr %8, align 8, !tbaa !3
  %28 = load ptr, ptr %9, align 8, !tbaa !3
  %29 = load i64, ptr %10, align 8, !tbaa !8
  %30 = load ptr, ptr %11, align 8, !tbaa !10
  %31 = load ptr, ptr %12, align 8, !tbaa !3
  call void %26(ptr noundef %27, ptr noundef %28, i64 noundef %29, ptr noundef %30, ptr noundef %31, i32 noundef 0)
  %32 = load i64, ptr %10, align 8, !tbaa !8
  store i64 %32, ptr %7, align 8
  store i32 1, ptr %16, align 4
  br label %79

33:                                               ; preds = %20
  %34 = load i64, ptr %14, align 8, !tbaa !8
  %35 = add i64 16, %34
  %36 = load i64, ptr %10, align 8, !tbaa !8
  %37 = sub i64 %36, %35
  store i64 %37, ptr %10, align 8, !tbaa !8
  %38 = load i64, ptr %10, align 8, !tbaa !8
  %39 = icmp ne i64 %38, 0
  br i1 %39, label %40, label %53

40:                                               ; preds = %33
  %41 = load ptr, ptr %13, align 8, !tbaa !10
  %42 = load ptr, ptr %8, align 8, !tbaa !3
  %43 = load ptr, ptr %9, align 8, !tbaa !3
  %44 = load i64, ptr %10, align 8, !tbaa !8
  %45 = load ptr, ptr %11, align 8, !tbaa !10
  %46 = load ptr, ptr %12, align 8, !tbaa !3
  call void %41(ptr noundef %42, ptr noundef %43, i64 noundef %44, ptr noundef %45, ptr noundef %46, i32 noundef 0)
  %47 = load i64, ptr %10, align 8, !tbaa !8
  %48 = load ptr, ptr %8, align 8, !tbaa !3
  %49 = getelementptr inbounds nuw i8, ptr %48, i64 %47
  store ptr %49, ptr %8, align 8, !tbaa !3
  %50 = load i64, ptr %10, align 8, !tbaa !8
  %51 = load ptr, ptr %9, align 8, !tbaa !3
  %52 = getelementptr inbounds nuw i8, ptr %51, i64 %50
  store ptr %52, ptr %9, align 8, !tbaa !3
  br label %53

53:                                               ; preds = %40, %33
  %54 = getelementptr inbounds [32 x i8], ptr %15, i64 0, i64 0
  call void @llvm.memset.p0.i64(ptr align 8 %54, i8 0, i64 32, i1 false)
  %55 = load ptr, ptr %13, align 8, !tbaa !10
  %56 = load ptr, ptr %8, align 8, !tbaa !3
  %57 = load i64, ptr %14, align 8, !tbaa !8
  %58 = getelementptr inbounds nuw i8, ptr %56, i64 %57
  %59 = getelementptr inbounds [32 x i8], ptr %15, i64 0, i64 0
  %60 = load ptr, ptr %11, align 8, !tbaa !10
  %61 = getelementptr inbounds [32 x i8], ptr %15, i64 0, i64 0
  %62 = getelementptr inbounds i8, ptr %61, i64 16
  call void %55(ptr noundef %58, ptr noundef %59, i64 noundef 16, ptr noundef %60, ptr noundef %62, i32 noundef 0)
  %63 = getelementptr inbounds [32 x i8], ptr %15, i64 0, i64 0
  %64 = load ptr, ptr %8, align 8, !tbaa !3
  %65 = load i64, ptr %14, align 8, !tbaa !8
  call void @llvm.memcpy.p0.p0.i64(ptr align 8 %63, ptr align 1 %64, i64 %65, i1 false)
  %66 = load ptr, ptr %13, align 8, !tbaa !10
  %67 = getelementptr inbounds [32 x i8], ptr %15, i64 0, i64 0
  %68 = getelementptr inbounds [32 x i8], ptr %15, i64 0, i64 0
  %69 = load ptr, ptr %11, align 8, !tbaa !10
  %70 = load ptr, ptr %12, align 8, !tbaa !3
  call void %66(ptr noundef %67, ptr noundef %68, i64 noundef 32, ptr noundef %69, ptr noundef %70, i32 noundef 0)
  %71 = load ptr, ptr %9, align 8, !tbaa !3
  %72 = getelementptr inbounds [32 x i8], ptr %15, i64 0, i64 0
  %73 = load i64, ptr %14, align 8, !tbaa !8
  %74 = add i64 16, %73
  call void @llvm.memcpy.p0.p0.i64(ptr align 1 %71, ptr align 8 %72, i64 %74, i1 false)
  %75 = load i64, ptr %10, align 8, !tbaa !8
  %76 = add i64 16, %75
  %77 = load i64, ptr %14, align 8, !tbaa !8
  %78 = add i64 %76, %77
  store i64 %78, ptr %7, align 8
  store i32 1, ptr %16, align 4
  br label %79

79:                                               ; preds = %53, %25, %19
  call void @llvm.lifetime.end.p0(i64 32, ptr %15) #5
  call void @llvm.lifetime.end.p0(i64 8, ptr %14) #5
  %80 = load i64, ptr %7, align 8
  ret i64 %80
}