; Function Attrs: nounwind uwtable
define range(i64 16, 1) i64 @CRYPTO_nistcts128_decrypt(ptr noundef %0, ptr noundef %1, i64 noundef %2, ptr noundef %3, ptr noundef %4, ptr noundef readonly captures(none) %5) local_unnamed_addr #0 {
  %7 = alloca %union.anon.4, align 8
  call void @llvm.lifetime.start.p0(i64 32, ptr nonnull %7) #5
  %8 = icmp ult i64 %2, 16
  br i1 %8, label %22, label %9

9:                                                ; preds = %6
  %10 = and i64 %2, 15
  %11 = icmp eq i64 %10, 0
  br i1 %11, label %12, label %13

12:                                               ; preds = %9
  tail call void %5(ptr noundef %0, ptr noundef %1, i64 noundef %2, ptr noundef %3, ptr noundef %4, i32 noundef 0) #5
  br label %22

13:                                               ; preds = %9
  %14 = or disjoint i64 %10, 16
  %.not = icmp eq i64 %2, %14
  br i1 %.not, label %19, label %15

15:                                               ; preds = %13
  %16 = sub i64 %2, %14
  tail call void %5(ptr noundef %0, ptr noundef %1, i64 noundef %16, ptr noundef %3, ptr noundef %4, i32 noundef 0) #5
  %17 = getelementptr inbounds nuw i8, ptr %0, i64 %16
  %18 = getelementptr inbounds nuw i8, ptr %1, i64 %16
  br label %19

19:                                               ; preds = %15, %13
  %.037 = phi ptr [ %18, %15 ], [ %1, %13 ]
  %.036 = phi ptr [ %17, %15 ], [ %0, %13 ]
  call void @llvm.memset.p0.i64(ptr noundef nonnull align 8 dereferenceable(32) %7, i8 0, i64 32, i1 false)
  %20 = getelementptr inbounds nuw i8, ptr %.036, i64 %10
  %21 = getelementptr inbounds nuw i8, ptr %7, i64 16
  call void %5(ptr noundef nonnull %20, ptr noundef nonnull %7, i64 noundef 16, ptr noundef %3, ptr noundef nonnull %21, i32 noundef 0) #5
  call void @llvm.memcpy.p0.p0.i64(ptr nonnull align 8 %7, ptr align 1 %.036, i64 %10, i1 false)
  call void %5(ptr noundef nonnull %7, ptr noundef nonnull %7, i64 noundef 32, ptr noundef %3, ptr noundef %4, i32 noundef 0) #5
  call void @llvm.memcpy.p0.p0.i64(ptr noundef nonnull align 1 dereferenceable(1) %.037, ptr noundef nonnull align 8 dereferenceable(1) %7, i64 %14, i1 false)
  br label %22

22:                                               ; preds = %6, %19, %12
  %.0 = phi i64 [ %2, %12 ], [ %2, %19 ], [ 0, %6 ]
  call void @llvm.lifetime.end.p0(i64 32, ptr nonnull %7) #5
  ret i64 %.0
}